target datalayout = "e-m:e-p270:32:32-p271:32:32-p272:64:64-i64:64-i128:128-f80:128-n8:16:32:64-S128"
target triple = "x86_64-pc-linux-gnu"

%struct.UserData = type { i64, double, double, double, double, double }
%struct._generic_SUNMatrix = type { ptr, ptr, ptr }
%struct._SUNMatrixContent_Band = type { i64, i64, i64, i64, i64, i64, ptr, i64, ptr }

; Function Attrs: nounwind uwtable
define internal i32 @jac_diffusion(double noundef %0, ptr noundef %1, ptr noundef %2, ptr noundef %3, ptr noundef %4, ptr noundef %5, ptr noundef %6, ptr noundef %7) #0 {
  %9 = alloca double, align 8
  %10 = alloca ptr, align 8
  %11 = alloca ptr, align 8
  %12 = alloca ptr, align 8
  %13 = alloca ptr, align 8
  %14 = alloca ptr, align 8
  %15 = alloca ptr, align 8
  %16 = alloca ptr, align 8
  %17 = alloca ptr, align 8
  %18 = alloca double, align 8
  %19 = alloca i32, align 4
  store double %0, ptr %9, align 8, !tbaa !4
  store ptr %1, ptr %10, align 8, !tbaa !22
  store ptr %2, ptr %11, align 8, !tbaa !22
  store ptr %3, ptr %12, align 8, !tbaa !25
  store ptr %4, ptr %13, align 8, !tbaa !24
  store ptr %5, ptr %14, align 8, !tbaa !22
  store ptr %6, ptr %15, align 8, !tbaa !22
  store ptr %7, ptr %16, align 8, !tbaa !22
  call void @llvm.lifetime.start.p0(i64 8, ptr %17) #5
  %20 = load ptr, ptr %13, align 8, !tbaa !24
  store ptr %20, ptr %17, align 8, !tbaa !24
  call void @llvm.lifetime.start.p0(i64 8, ptr %18) #5
  %21 = load ptr, ptr %17, align 8, !tbaa !24
  %22 = getelementptr inbounds nuw %struct.UserData, ptr %21, i32 0, i32 3
  %23 = load double, ptr %22, align 8, !tbaa !14
  %24 = load ptr, ptr %17, align 8, !tbaa !24
  %25 = getelementptr inbounds nuw %struct.UserData, ptr %24, i32 0, i32 1
  %26 = load double, ptr %25, align 8, !tbaa !12
  %27 = load ptr, ptr %17, align 8, !tbaa !24
  %28 = getelementptr inbounds nuw %struct.UserData, ptr %27, i32 0, i32 1
  %29 = load double, ptr %28, align 8, !tbaa !12
  %30 = fmul double %26, %29
  %31 = fdiv double %23, %30
  store double %31, ptr %18, align 8, !tbaa !4
  %32 = load double, ptr %18, align 8, !tbaa !4
  %33 = fmul double -2.000000e+00, %32
  %34 = load ptr, ptr %12, align 8, !tbaa !25
  %35 = getelementptr inbounds nuw %struct._generic_SUNMatrix, ptr %34, i32 0, i32 0
  %36 = load ptr, ptr %35, align 8, !tbaa !39
  %37 = getelementptr inbounds nuw %struct._SUNMatrixContent_Band, ptr %36, i32 0, i32 8
  %38 = load ptr, ptr %37, align 8, !tbaa !42
  %39 = getelementptr inbounds ptr, ptr %38, i64 0
  %40 = load ptr, ptr %39, align 8, !tbaa !37
  %41 = load ptr, ptr %12, align 8, !tbaa !25
  %42 = getelementptr inbounds nuw %struct._generic_SUNMatrix, ptr %41, i32 0, i32 0
  %43 = load ptr, ptr %42, align 8, !tbaa !39
  %44 = getelementptr inbounds nuw %struct._SUNMatrixContent_Band, ptr %43, i32 0, i32 5
  %45 = load i64, ptr %44, align 8, !tbaa !45
  %46 = add nsw i64 0, %45
  %47 = getelementptr inbounds double, ptr %40, i64 %46
  store double %33, ptr %47, align 8, !tbaa !4
  call void @llvm.lifetime.start.p0(i64 4, ptr %19) #5
  store i32 1, ptr %19, align 4, !tbaa !17
  br label %48

48:                                               ; preds = %124, %8
  %49 = load i32, ptr %19, align 4, !tbaa !17
  %50 = sext i32 %49 to i64
  %51 = load ptr, ptr %17, align 8, !tbaa !24
  %52 = getelementptr inbounds nuw %struct.UserData, ptr %51, i32 0, i32 0
  %53 = load i64, ptr %52, align 8, !tbaa !10
  %54 = icmp slt i64 %50, %53
  br i1 %54, label %56, label %55

55:                                               ; preds = %48
  call void @llvm.lifetime.end.p0(i64 4, ptr %19) #5
  br label %127

56:                                               ; preds = %48
  %57 = load double, ptr %18, align 8, !tbaa !4
  %58 = load ptr, ptr %12, align 8, !tbaa !25
  %59 = getelementptr inbounds nuw %struct._generic_SUNMatrix, ptr %58, i32 0, i32 0
  %60 = load ptr, ptr %59, align 8, !tbaa !39
  %61 = getelementptr inbounds nuw %struct._SUNMatrixContent_Band, ptr %60, i32 0, i32 8
  %62 = load ptr, ptr %61, align 8, !tbaa !42
  %63 = load i32, ptr %19, align 4, !tbaa !17
  %64 = sext i32 %63 to i64
  %65 = getelementptr inbounds ptr, ptr %62, i64 %64
  %66 = load ptr, ptr %65, align 8, !tbaa !37
  %67 = load i32, ptr %19, align 4, !tbaa !17
  %68 = sub nsw i32 %67, 1
  %69 = load i32, ptr %19, align 4, !tbaa !17
  %70 = sub nsw i32 %68, %69
  %71 = sext i32 %70 to i64
  %72 = load ptr, ptr %12, align 8, !tbaa !25
  %73 = getelementptr inbounds nuw %struct._generic_SUNMatrix, ptr %72, i32 0, i32 0
  %74 = load ptr, ptr %73, align 8, !tbaa !39
  %75 = getelementptr inbounds nuw %struct._SUNMatrixContent_Band, ptr %74, i32 0, i32 5
  %76 = load i64, ptr %75, align 8, !tbaa !45
  %77 = add nsw i64 %71, %76
  %78 = getelementptr inbounds double, ptr %66, i64 %77
  store double %57, ptr %78, align 8, !tbaa !4
  %79 = load double, ptr %18, align 8, !tbaa !4
  %80 = fmul double -2.000000e+00, %79
  %81 = load ptr, ptr %12, align 8, !tbaa !25
  %82 = getelementptr inbounds nuw %struct._generic_SUNMatrix, ptr %81, i32 0, i32 0
  %83 = load ptr, ptr %82, align 8, !tbaa !39
  %84 = getelementptr inbounds nuw %struct._SUNMatrixContent_Band, ptr %83, i32 0, i32 8
  %85 = load ptr, ptr %84, align 8, !tbaa !42
  %86 = load i32, ptr %19, align 4, !tbaa !17
  %87 = sext i32 %86 to i64
  %88 = getelementptr inbounds ptr, ptr %85, i64 %87
  %89 = load ptr, ptr %88, align 8, !tbaa !37
  %90 = load i32, ptr %19, align 4, !tbaa !17
  %91 = load i32, ptr %19, align 4, !tbaa !17
  %92 = sub nsw i32 %90, %91
  %93 = sext i32 %92 to i64
  %94 = load ptr, ptr %12, align 8, !tbaa !25
  %95 = getelementptr inbounds nuw %struct._generic_SUNMatrix, ptr %94, i32 0, i32 0
  %96 = load ptr, ptr %95, align 8, !tbaa !39
  %97 = getelementptr inbounds nuw %struct._SUNMatrixContent_Band, ptr %96, i32 0, i32 5
  %98 = load i64, ptr %97, align 8, !tbaa !45
  %99 = add nsw i64 %93, %98
  %100 = getelementptr inbounds double, ptr %89, i64 %99
  store double %80, ptr %100, align 8, !tbaa !4
  %101 = load double, ptr %18, align 8, !tbaa !4
  %102 = load ptr, ptr %12, align 8, !tbaa !25
  %103 = getelementptr inbounds nuw %struct._generic_SUNMatrix, ptr %102, i32 0, i32 0
  %104 = load ptr, ptr %103, align 8, !tbaa !39
  %105 = getelementptr inbounds nuw %struct._SUNMatrixContent_Band, ptr %104, i32 0, i32 8
  %106 = load ptr, ptr %105, align 8, !tbaa !42
  %107 = load i32, ptr %19, align 4, !tbaa !17
  %108 = sub nsw i32 %107, 1
  %109 = sext i32 %108 to i64
  %110 = getelementptr inbounds ptr, ptr %106, i64 %109
  %111 = load ptr, ptr %110, align 8, !tbaa !37
  %112 = load i32, ptr %19, align 4, !tbaa !17
  %113 = load i32, ptr %19, align 4, !tbaa !17
  %114 = sub nsw i32 %113, 1
  %115 = sub nsw i32 %112, %114
  %116 = sext i32 %115 to i64
  %117 = load ptr, ptr %12, align 8, !tbaa !25
  %118 = getelementptr inbounds nuw %struct._generic_SUNMatrix, ptr %117, i32 0, i32 0
  %119 = load ptr, ptr %118, align 8, !tbaa !39
  %120 = getelementptr inbounds nuw %struct._SUNMatrixContent_Band, ptr %119, i32 0, i32 5
  %121 = load i64, ptr %120, align 8, !tbaa !45
  %122 = add nsw i64 %116, %121
  %123 = getelementptr inbounds double, ptr %111, i64 %122
  store double %101, ptr %123, align 8, !tbaa !4
  br label %124

124:                                              ; preds = %56
  %125 = load i32, ptr %19, align 4, !tbaa !17
  %126 = add nsw i32 %125, 1
  store i32 %126, ptr %19, align 4, !tbaa !17
  br label %48

127:                                              ; preds = %55
  call void @llvm.lifetime.end.p0(i64 8, ptr %18) #5
  call void @llvm.lifetime.end.p0(i64 8, ptr %17) #5
  ret i32 0
}