; Function Attrs: nofree norecurse nosync nounwind memory(readwrite, inaccessiblemem: none) uwtable
define internal noundef i32 @jac_diffusion(double %0, ptr readnone captures(none) %1, ptr readnone captures(none) %2, ptr noundef readonly captures(none) %3, ptr noundef readonly captures(none) %4, ptr readnone captures(none) %5, ptr readnone captures(none) %6, ptr readnone captures(none) %7) #4 {
  %9 = getelementptr inbounds nuw i8, ptr %4, i64 24
  %10 = load double, ptr %9, align 8, !tbaa !12
  %11 = getelementptr inbounds nuw i8, ptr %4, i64 8
  %12 = load double, ptr %11, align 8, !tbaa !10
  %13 = fmul double %12, %12
  %14 = fdiv double %10, %13
  %15 = fmul double %14, -2.000000e+00
  %16 = load ptr, ptr %3, align 8, !tbaa !26
  %17 = getelementptr inbounds nuw i8, ptr %16, i64 64
  %18 = load ptr, ptr %17, align 8, !tbaa !29
  %19 = load ptr, ptr %18, align 8, !tbaa !33
  %20 = getelementptr inbounds nuw i8, ptr %16, i64 40
  %21 = load i64, ptr %20, align 8, !tbaa !34
  %22 = getelementptr inbounds double, ptr %19, i64 %21
  store double %15, ptr %22, align 8, !tbaa !23
  %23 = load i64, ptr %4, align 8, !tbaa !4
  %24 = icmp sgt i64 %23, 1
  br i1 %24, label %.lr.ph, label %._crit_edge

._crit_edge:                                      ; preds = %.lr.ph, %8
  ret i32 0

.lr.ph:                                           ; preds = %8, %.lr.ph
  %indvars.iv = phi i64 [ %indvars.iv.next, %.lr.ph ], [ 1, %8 ]
  %25 = getelementptr inbounds nuw ptr, ptr %18, i64 %indvars.iv
  %26 = load ptr, ptr %25, align 8, !tbaa !33
  %27 = getelementptr double, ptr %26, i64 %21
  %28 = getelementptr i8, ptr %27, i64 -8
  store double %14, ptr %28, align 8, !tbaa !23
  store double %15, ptr %27, align 8, !tbaa !23
  %29 = getelementptr i8, ptr %25, i64 -8
  %30 = load ptr, ptr %29, align 8, !tbaa !33
  %31 = getelementptr double, ptr %30, i64 %21
  %32 = getelementptr i8, ptr %31, i64 8
  store double %14, ptr %32, align 8, !tbaa !23
  %indvars.iv.next = add nuw nsw i64 %indvars.iv, 1
  %exitcond.not = icmp eq i64 %indvars.iv.next, %23
  br i1 %exitcond.not, label %._crit_edge, label %.lr.ph
}